Certificate:
    Data:
        Version: 3 (0x2)
        Serial Number: 1 (0x1)
    Signature Algorithm: sha1WithRSAEncryption
        Issuer: CN=MyOwn Root Certificate Authority, ST=JiangSu, C=CN/emailAddress=wuaiwow@gmail.com, O=personal, OU=personal
        Validity
            Not Before: Feb 18 15:29:54 2017 GMT
            Not After : Feb 17 15:29:54 2022 GMT
        Subject: CN=MyOwn Root Certificate Authority, ST=JiangSu, C=CN/emailAddress=wuaiwow@gmail.com, O=personal, OU=personal
        Subject Public Key Info:
            Public Key Algorithm: rsaEncryption
                Public-Key: (1024 bit)
                Modulus:
                    00:a4:af:68:41:67:20:d4:05:41:4d:5d:67:2c:a5:
                    d6:7a:ff:bc:96:ff:75:c3:ff:6d:40:4e:fd:43:dc:
                    dc:9a:d4:0d:fc:e0:be:8e:eb:74:68:8c:ab:9c:27:
                    bf:50:48:73:ee:67:fe:17:29:3a:2a:b4:06:2d:c2:
                    3a:92:7d:fe:a8:c5:3b:62:df:bc:7a:ef:8b:a7:db:
                    bb:d5:85:38:a5:e1:81:49:83:ca:b8:8a:9c:c9:d9:
                    e6:32:9e:3d:0d:80:63:92:3f:3e:72:9b:cf:3c:62:
                    e1:1b:9e:a8:66:9d:d8:57:20:b3:d2:fe:74:36:07:
                    d8:aa:3f:c5:33:99:da:04:a5
                Exponent: 65537 (0x10001)
        X509v3 extensions:
            X509v3 Basic Constraints: 
                CA:FALSE
    Signature Algorithm: sha1WithRSAEncryption
         5e:ce:a0:e4:bc:d1:81:65:92:fe:8b:46:32:7b:c0:94:a7:04:
         a3:d0:e1:84:87:bb:9e:88:ea:95:53:2e:9c:6f:6f:d7:9a:8c:
         63:56:2b:b7:03:77:dd:63:d0:7f:33:ca:45:36:82:07:84:99:
         75:61:c7:d0:00:73:86:a0:ed:5f:4e:30:28:7c:57:29:d5:65:
         1c:b7:b0:51:b6:03:c2:8e:ac:33:fb:18:39:ac:45:53:d9:1f:
         77:da:d9:05:42:ac:58:34:73:8c:15:49:43:dd:8d:c1:ef:78:
         45:1c:cd:29:17:5c:11:01:53:f0:b6:f4:bb:14:bd:2a:be:49:
         22:28:b2:00:e5:f7:97:fa:1b:a4:0f:fb:75:ce:ff:b3:c8:f9:
         30:2a:2e:ee:98:70:15:ca:f3:26:4d:49:e8:c7:57:ce:b2:5e:
         29:ef:de:9d:b7:50:27:11:1a:39:56:cb:3f:8d:9e:6d:59:8e:
         75:7d:05:af:63:ce:6f:6c:e4:18:36:48:5a:5b:5a:df:bd:84:
         94:9f:02:4a:52:75:69:5a:e7:86:10:23:6b:b5:d9:70:d8:70:
         4e:3f:a1:95:89:95:bf:55:e2:08:f2:62:2a:30:1c:36:bb:8c:
         dd:c1:45:44:fa:2f:33:71:6c:2d:88:fd:ed:f4:4f:27:6e:e9:
         f9:de:03:c2
-----BEGIN CERTIFICATE-----
MIIDKjCCAhKgAwIBAgIBATANBgkqhkiG9w0BAQUFADCBkjEpMCcGA1UEAxMgTXlP
d24gUm9vdCBDZXJ0aWZpY2F0ZSBBdXRob3JpdHkxEDAOBgNVBAgTB0ppYW5nU3Ux
CzAJBgNVBAYTAkNOMSAwHgYJKoZIhvcNAQkBFhF3dWFpd293QGdtYWlsLmNvbTER
MA8GA1UEChMIcGVyc29uYWwxETAPBgNVBAsTCHBlcnNvbmFsMB4XDTE3MDIxODE1
Mjk1NFoXDTIyMDIxNzE1Mjk1NFowgZIxKTAnBgNVBAMTIE15T3duIFJvb3QgQ2Vy
dGlmaWNhdGUgQXV0aG9yaXR5MRAwDgYDVQQIEwdKaWFuZ1N1MQswCQYDVQQGEwJD
TjEgMB4GCSqGSIb3DQEJARYRd3VhaXdvd0BnbWFpbC5jb20xETAPBgNVBAoTCHBl
cnNvbmFsMREwDwYDVQQLEwhwZXJzb25hbDCBnzANBgkqhkiG9w0BAQEFAAOBjQAw
gYkCgYEApK9oQWcg1AVBTV1nLKXWev+8lv91w/9tQE79Q9zcmtQN/OC+jut0aIyr
nCe/UEhz7mf+Fyk6KrQGLcI6kn3+qMU7Yt+8eu+Lp9u71YU4peGBSYPKuIqcydnm
Mp49DYBjkj8+cpvPPGLhG56oZp3YVyCz0v50NgfYqj/FM5naBKUCAwEAAaMNMAsw
CQYDVR0TBAIwADANBgkqhkiG9w0BAQUFAAOCAQEAXs6g5LzRgWWS/otGMnvAlKcE
o9DhhIe7nojqlVMunG9v15qMY1YrtwN33WPQfzPKRTaCB4SZdWHH0ABzhqDtX04w
KHxXKdVlHLewUbYDwo6sM/sYOaxFU9kfd9rZBUKsWDRzjBVJQ92Nwe94RRzNKRdc
EQFT8Lb0uxS9Kr5JIiiyAOX3l/obpA/7dc7/s8j5MCou7phwFcrzJk1J6MdXzrJe
Ke/enbdQJxEaOVbLP42ebVmOdX0Fr2POb2zkGDZIWlta372ElJ8CSlJ1aVrnhhAj
a7XZcNhwTj+hlYmVv1XiCPJiKjAcNruM3cFFRPovM3FsLYj97fRPJ27p+d4Dwg==
-----END CERTIFICATE-----
